; ModuleID = '52/1233.c'
source_filename = "52/1233.c"
target datalayout = "e-m:e-p270:32:32-p271:32:32-p272:64:64-i64:64-f80:128-n8:16:32:64-S128"
target triple = "x86_64-pc-linux-gnu"

@__const.main.a = private unnamed_addr constant <{ [11 x i32], [89 x i32] }> <{ [11 x i32] [i32 15, i32 3, i32 76, i32 67, i32 84, i32 87, i32 13, i32 67, i32 45, i32 34, i32 45], [89 x i32] zeroinitializer }>, align 16
@.str = private unnamed_addr constant [6 x i8] c"%d %d\00", align 1
@.str.1 = private unnamed_addr constant [3 x i8] c"%d\00", align 1
@.str.2 = private unnamed_addr constant [4 x i8] c"%d \00", align 1
@.str.3 = private unnamed_addr constant [4 x i8] c"%d\0A\00", align 1

; Function Attrs: noinline nounwind uwtable
define dso_local void @main() #0 {
  %1 = alloca i32, align 4
  %2 = alloca i32, align 4
  %3 = alloca i32, align 4
  %4 = alloca i32, align 4
  %5 = alloca i32, align 4
  %6 = alloca [100 x i32], align 16
  %7 = bitcast [100 x i32]* %6 to i8*
  call void @llvm.memcpy.p0i8.p0i8.i64(i8* align 16 %7, i8* align 16 bitcast (<{ [11 x i32], [89 x i32] }>* @__const.main.a to i8*), i64 400, i1 false)
  %8 = call i32 (i8*, ...) @__isoc99_scanf(i8* getelementptr inbounds ([6 x i8], [6 x i8]* @.str, i64 0, i64 0), i32* %5, i32* %4)
  store i32 0, i32* %1, align 4
  br label %9

9:                                                ; preds = %19, %0
  %10 = load i32, i32* %1, align 4
  %11 = load i32, i32* %5, align 4
  %12 = icmp slt i32 %10, %11
  br i1 %12, label %13, label %22

13:                                               ; preds = %9
  %14 = getelementptr inbounds [100 x i32], [100 x i32]* %6, i64 0, i64 0
  %15 = load i32, i32* %1, align 4
  %16 = sext i32 %15 to i64
  %17 = getelementptr inbounds i32, i32* %14, i64 %16
  %18 = call i32 (i8*, ...) @__isoc99_scanf(i8* getelementptr inbounds ([3 x i8], [3 x i8]* @.str.1, i64 0, i64 0), i32* %17)
  br label %19

19:                                               ; preds = %13
  %20 = load i32, i32* %1, align 4
  %21 = add nsw i32 %20, 1
  store i32 %21, i32* %1, align 4
  br label %9

22:                                               ; preds = %9
  store i32 0, i32* %1, align 4
  br label %23

23:                                               ; preds = %58, %22
  %24 = load i32, i32* %1, align 4
  %25 = load i32, i32* %4, align 4
  %26 = icmp slt i32 %24, %25
  br i1 %26, label %27, label %61

27:                                               ; preds = %23
  %28 = load i32, i32* %5, align 4
  %29 = sub nsw i32 %28, 1
  %30 = sext i32 %29 to i64
  %31 = getelementptr inbounds [100 x i32], [100 x i32]* %6, i64 0, i64 %30
  %32 = load i32, i32* %31, align 4
  store i32 %32, i32* %3, align 4
  store i32 0, i32* %2, align 4
  br label %33

33:                                               ; preds = %52, %27
  %34 = load i32, i32* %2, align 4
  %35 = load i32, i32* %5, align 4
  %36 = sub nsw i32 %35, 1
  %37 = icmp slt i32 %34, %36
  br i1 %37, label %38, label %55

38:                                               ; preds = %33
  %39 = load i32, i32* %5, align 4
  %40 = sub nsw i32 %39, 2
  %41 = load i32, i32* %2, align 4
  %42 = sub nsw i32 %40, %41
  %43 = sext i32 %42 to i64
  %44 = getelementptr inbounds [100 x i32], [100 x i32]* %6, i64 0, i64 %43
  %45 = load i32, i32* %44, align 4
  %46 = load i32, i32* %5, align 4
  %47 = sub nsw i32 %46, 1
  %48 = load i32, i32* %2, align 4
  %49 = sub nsw i32 %47, %48
  %50 = sext i32 %49 to i64
  %51 = getelementptr inbounds [100 x i32], [100 x i32]* %6, i64 0, i64 %50
  store i32 %45, i32* %51, align 4
  br label %52

52:                                               ; preds = %38
  %53 = load i32, i32* %2, align 4
  %54 = add nsw i32 %53, 1
  store i32 %54, i32* %2, align 4
  br label %33

55:                                               ; preds = %33
  %56 = load i32, i32* %3, align 4
  %57 = getelementptr inbounds [100 x i32], [100 x i32]* %6, i64 0, i64 0
  store i32 %56, i32* %57, align 16
  br label %58

58:                                               ; preds = %55
  %59 = load i32, i32* %1, align 4
  %60 = add nsw i32 %59, 1
  store i32 %60, i32* %1, align 4
  br label %23

61:                                               ; preds = %23
  store i32 0, i32* %1, align 4
  br label %62

62:                                               ; preds = %74, %61
  %63 = load i32, i32* %1, align 4
  %64 = load i32, i32* %5, align 4
  %65 = sub nsw i32 %64, 1
  %66 = icmp slt i32 %63, %65
  br i1 %66, label %67, label %77

67:                                               ; preds = %62
  %68 = getelementptr inbounds [100 x i32], [100 x i32]* %6, i64 0, i64 0
  %69 = load i32, i32* %1, align 4
  %70 = sext i32 %69 to i64
  %71 = getelementptr inbounds i32, i32* %68, i64 %70
  %72 = load i32, i32* %71, align 4
  %73 = call i32 (i8*, ...) @printf(i8* getelementptr inbounds ([4 x i8], [4 x i8]* @.str.2, i64 0, i64 0), i32 %72)
  br label %74

74:                                               ; preds = %67
  %75 = load i32, i32* %1, align 4
  %76 = add nsw i32 %75, 1
  store i32 %76, i32* %1, align 4
  br label %62

77:                                               ; preds = %62
  %78 = load i32, i32* %1, align 4
  %79 = sext i32 %78 to i64
  %80 = getelementptr inbounds [100 x i32], [100 x i32]* %6, i64 0, i64 %79
  %81 = load i32, i32* %80, align 4
  %82 = call i32 (i8*, ...) @printf(i8* getelementptr inbounds ([4 x i8], [4 x i8]* @.str.3, i64 0, i64 0), i32 %81)
  ret void
}

; Function Attrs: argmemonly nounwind willreturn
declare void @llvm.memcpy.p0i8.p0i8.i64(i8* noalias nocapture writeonly, i8* noalias nocapture readonly, i64, i1 immarg) #1

declare dso_local i32 @__isoc99_scanf(i8*, ...) #2

declare dso_local i32 @printf(i8*, ...) #2


!llvm.module.flags = !{!0}
!llvm.ident = !{!1}

!0 = !{i32 1, !"wchar_size", i32 4}
!1 = !{!"clang version 10.0.0-4ubuntu1 "}
